; Function Attrs: mustprogress uwtable
define void @_ZN11CommandDataC2Ev(ptr noundef nonnull align 8 dereferenceable(100904) %0) unnamed_addr #0 align 2 personality ptr @__gxx_personality_v0 {
  tail call void @_ZN10RAROptionsC2Ev(ptr noundef nonnull align 8 dereferenceable(83464) %0)
  %2 = getelementptr inbounds nuw i8, ptr %0, i64 99928
  tail call void @_ZN10StringListC1Ev(ptr noundef nonnull align 8 dereferenceable(184) %2)
  %3 = getelementptr inbounds nuw i8, ptr %0, i64 100112
  invoke void @_ZN10StringListC1Ev(ptr noundef nonnull align 8 dereferenceable(184) %3)
          to label %4 unwind label %15

4:                                                ; preds = %1
  %5 = getelementptr inbounds nuw i8, ptr %0, i64 100296
  invoke void @_ZN10StringListC1Ev(ptr noundef nonnull align 8 dereferenceable(184) %5)
          to label %6 unwind label %17

6:                                                ; preds = %4
  %7 = getelementptr inbounds nuw i8, ptr %0, i64 100480
  invoke void @_ZN10StringListC1Ev(ptr noundef nonnull align 8 dereferenceable(184) %7)
          to label %8 unwind label %19

8:                                                ; preds = %6
  %9 = getelementptr inbounds nuw i8, ptr %0, i64 100664
  invoke void @_ZN10StringListC1Ev(ptr noundef nonnull align 8 dereferenceable(184) %9)
          to label %10 unwind label %21

10:                                               ; preds = %8
  %11 = getelementptr inbounds nuw i8, ptr %0, i64 100848
  invoke void @_ZN11SecPasswordC1Ev(ptr noundef nonnull align 8 dereferenceable(25) %11)
          to label %12 unwind label %23

12:                                               ; preds = %10
  %13 = getelementptr inbounds nuw i8, ptr %0, i64 100880
  tail call void @llvm.memset.p0.i64(ptr noundef nonnull align 8 dereferenceable(24) %13, i8 0, i64 24, i1 false)
  invoke void @_ZN11CommandData4InitEv(ptr noundef nonnull align 8 dereferenceable(100904) %0)
          to label %14 unwind label %25

14:                                               ; preds = %12
  ret void

15:                                               ; preds = %1
  %16 = landingpad { ptr, i32 }
          cleanup
  br label %_ZN10StringListD2Ev.exit17

17:                                               ; preds = %4
  %18 = landingpad { ptr, i32 }
          cleanup
  br label %_ZN10StringListD2Ev.exit15

19:                                               ; preds = %6
  %20 = landingpad { ptr, i32 }
          cleanup
  br label %_ZN10StringListD2Ev.exit13

21:                                               ; preds = %8
  %22 = landingpad { ptr, i32 }
          cleanup
  br label %_ZN10StringListD2Ev.exit

23:                                               ; preds = %10
  %24 = landingpad { ptr, i32 }
          cleanup
  br label %29

25:                                               ; preds = %12
  %26 = landingpad { ptr, i32 }
          cleanup
  %27 = load ptr, ptr %13, align 8
  %.not.i.i.i = icmp eq ptr %27, null
  br i1 %.not.i.i.i, label %_ZNSt6vectorIlSaIlEED2Ev.exit, label %28

28:                                               ; preds = %25
  tail call void @_ZdlPv(ptr noundef nonnull %27) #17
  br label %_ZNSt6vectorIlSaIlEED2Ev.exit

_ZNSt6vectorIlSaIlEED2Ev.exit:                    ; preds = %25, %28
  tail call void @_ZN11SecPasswordD1Ev(ptr noundef nonnull align 8 dereferenceable(25) %11) #18
  br label %29

29:                                               ; preds = %_ZNSt6vectorIlSaIlEED2Ev.exit, %23
  %.pn = phi { ptr, i32 } [ %26, %_ZNSt6vectorIlSaIlEED2Ev.exit ], [ %24, %23 ]
  %30 = load ptr, ptr %9, align 8
  %.not.i.i = icmp eq ptr %30, null
  br i1 %.not.i.i, label %_ZN10StringListD2Ev.exit, label %31

31:                                               ; preds = %29
  tail call void @free(ptr noundef nonnull %30) #18
  br label %_ZN10StringListD2Ev.exit

_ZN10StringListD2Ev.exit:                         ; preds = %31, %29, %21
  %.pn.pn = phi { ptr, i32 } [ %22, %21 ], [ %.pn, %29 ], [ %.pn, %31 ]
  %32 = load ptr, ptr %7, align 8
  %.not.i.i12 = icmp eq ptr %32, null
  br i1 %.not.i.i12, label %_ZN10StringListD2Ev.exit13, label %33

33:                                               ; preds = %_ZN10StringListD2Ev.exit
  tail call void @free(ptr noundef nonnull %32) #18
  br label %_ZN10StringListD2Ev.exit13

_ZN10StringListD2Ev.exit13:                       ; preds = %33, %_ZN10StringListD2Ev.exit, %19
  %.pn.pn.pn = phi { ptr, i32 } [ %20, %19 ], [ %.pn.pn, %_ZN10StringListD2Ev.exit ], [ %.pn.pn, %33 ]
  %34 = load ptr, ptr %5, align 8
  %.not.i.i14 = icmp eq ptr %34, null
  br i1 %.not.i.i14, label %_ZN10StringListD2Ev.exit15, label %35

35:                                               ; preds = %_ZN10StringListD2Ev.exit13
  tail call void @free(ptr noundef nonnull %34) #18
  br label %_ZN10StringListD2Ev.exit15

_ZN10StringListD2Ev.exit15:                       ; preds = %35, %_ZN10StringListD2Ev.exit13, %17
  %.pn.pn.pn.pn = phi { ptr, i32 } [ %18, %17 ], [ %.pn.pn.pn, %_ZN10StringListD2Ev.exit13 ], [ %.pn.pn.pn, %35 ]
  %36 = load ptr, ptr %3, align 8
  %.not.i.i16 = icmp eq ptr %36, null
  br i1 %.not.i.i16, label %_ZN10StringListD2Ev.exit17, label %37

37:                                               ; preds = %_ZN10StringListD2Ev.exit15
  tail call void @free(ptr noundef nonnull %36) #18
  br label %_ZN10StringListD2Ev.exit17

_ZN10StringListD2Ev.exit17:                       ; preds = %37, %_ZN10StringListD2Ev.exit15, %15
  %.pn.pn.pn.pn.pn = phi { ptr, i32 } [ %16, %15 ], [ %.pn.pn.pn.pn, %_ZN10StringListD2Ev.exit15 ], [ %.pn.pn.pn.pn, %37 ]
  %38 = load ptr, ptr %2, align 8
  %.not.i.i18 = icmp eq ptr %38, null
  br i1 %.not.i.i18, label %_ZN10StringListD2Ev.exit19, label %39

39:                                               ; preds = %_ZN10StringListD2Ev.exit17
  tail call void @free(ptr noundef nonnull %38) #18
  br label %_ZN10StringListD2Ev.exit19

_ZN10StringListD2Ev.exit19:                       ; preds = %_ZN10StringListD2Ev.exit17, %39
  resume { ptr, i32 } %.pn.pn.pn.pn.pn
}